; Function Attrs: mustprogress uwtable
define hidden void @_ZN4cvc58internal3smt9PfManager17startProofLoggingERSoRNS1_10AssertionsE(ptr noundef nonnull align 8 dereferenceable(656) %0, ptr noundef nonnull align 8 dereferenceable(8) %1, ptr noundef nonnull align 8 dereferenceable(288) %2) local_unnamed_addr #3 align 2 personality ptr @__gxx_personality_v0 {
  %4 = tail call noalias noundef nonnull dereferenceable(1648) ptr @_Znwm(i64 noundef 1648) #27
  %5 = getelementptr inbounds nuw i8, ptr %0, i64 8
  %6 = load ptr, ptr %5, align 8, !tbaa !253
  %7 = getelementptr inbounds nuw i8, ptr %0, i64 56
  %8 = load ptr, ptr %7, align 8, !tbaa !306
  invoke void @_ZN4cvc58internal14ProofLoggerCpcC1ERNS0_3EnvERSoPNS0_3smt9PfManagerERNS5_10AssertionsEPNS5_16ProofPostprocessE(ptr noundef nonnull align 8 dereferenceable(1648) %4, ptr noundef nonnull align 8 dereferenceable(696) %6, ptr noundef nonnull align 8 dereferenceable(8) %1, ptr noundef nonnull %0, ptr noundef nonnull align 8 dereferenceable(288) %2, ptr noundef %8)
          to label %9 unwind label %15

9:                                                ; preds = %3
  %10 = getelementptr inbounds nuw i8, ptr %0, i64 48
  %11 = load ptr, ptr %10, align 8, !tbaa !314
  store ptr %4, ptr %10, align 8, !tbaa !314
  %.not.i.i = icmp eq ptr %11, null
  br i1 %.not.i.i, label %_ZNSt10unique_ptrIN4cvc58internal11ProofLoggerESt14default_deleteIS2_EE5resetEPS2_.exit, label %_ZNKSt14default_deleteIN4cvc58internal11ProofLoggerEEclEPS2_.exit.i.i

_ZNKSt14default_deleteIN4cvc58internal11ProofLoggerEEclEPS2_.exit.i.i: ; preds = %9
  %12 = load ptr, ptr %11, align 8, !tbaa !3
  %13 = getelementptr inbounds nuw i8, ptr %12, i64 8
  %14 = load ptr, ptr %13, align 8
  tail call void %14(ptr noundef nonnull align 8 dereferenceable(16) %11) #26
  br label %_ZNSt10unique_ptrIN4cvc58internal11ProofLoggerESt14default_deleteIS2_EE5resetEPS2_.exit

_ZNSt10unique_ptrIN4cvc58internal11ProofLoggerESt14default_deleteIS2_EE5resetEPS2_.exit: ; preds = %9, %_ZNKSt14default_deleteIN4cvc58internal11ProofLoggerEEclEPS2_.exit.i.i
  ret void

15:                                               ; preds = %3
  %16 = landingpad { ptr, i32 }
          cleanup
  tail call void @_ZdlPvm(ptr noundef nonnull %4, i64 noundef 1648) #28
  resume { ptr, i32 } %16
}